; ModuleID = '31/320.c'
source_filename = "31/320.c"
target datalayout = "e-m:e-p270:32:32-p271:32:32-p272:64:64-i64:64-f80:128-n8:16:32:64-S128"
target triple = "x86_64-pc-linux-gnu"

%struct.student = type { [400 x i8], %struct.student* }

; Function Attrs: noinline nounwind uwtable
define dso_local i32 @main() #0 {
  %1 = alloca i32, align 4
  %2 = alloca i32, align 4
  %3 = alloca i32, align 4
  %4 = alloca [1000 x %struct.student], align 16
  %5 = alloca %struct.student*, align 8
  %6 = alloca %struct.student*, align 8
  store i32 0, i32* %1, align 4
  store i32 1, i32* %2, align 4
  store i32 0, i32* %3, align 4
  br label %7

7:                                                ; preds = %18, %0
  %8 = load i32, i32* %2, align 4
  %9 = sext i32 %8 to i64
  %10 = getelementptr inbounds [1000 x %struct.student], [1000 x %struct.student]* %4, i64 0, i64 %9
  %11 = getelementptr inbounds %struct.student, %struct.student* %10, i32 0, i32 0
  %12 = getelementptr inbounds [400 x i8], [400 x i8]* %11, i64 0, i64 0
  %13 = call i32 (i8*, ...) bitcast (i32 (...)* @gets to i32 (i8*, ...)*)(i8* %12)
  %14 = load i32, i32* %2, align 4
  %15 = add nsw i32 %14, 1
  store i32 %15, i32* %2, align 4
  %16 = load i32, i32* %3, align 4
  %17 = add nsw i32 %16, 1
  store i32 %17, i32* %3, align 4
  br label %18

18:                                               ; preds = %7
  %19 = load i32, i32* %2, align 4
  %20 = sub nsw i32 %19, 1
  %21 = sext i32 %20 to i64
  %22 = getelementptr inbounds [1000 x %struct.student], [1000 x %struct.student]* %4, i64 0, i64 %21
  %23 = getelementptr inbounds %struct.student, %struct.student* %22, i32 0, i32 0
  %24 = getelementptr inbounds [400 x i8], [400 x i8]* %23, i64 0, i64 0
  %25 = load i8, i8* %24, align 8
  %26 = sext i8 %25 to i32
  %27 = icmp ne i32 %26, 101
  br i1 %27, label %7, label %28

28:                                               ; preds = %18
  %29 = load i32, i32* %3, align 4
  %30 = sub nsw i32 %29, 1
  %31 = sext i32 %30 to i64
  %32 = getelementptr inbounds [1000 x %struct.student], [1000 x %struct.student]* %4, i64 0, i64 %31
  store %struct.student* %32, %struct.student** %5, align 8
  %33 = load i32, i32* %3, align 4
  %34 = sub nsw i32 %33, 1
  store i32 %34, i32* %2, align 4
  br label %35

35:                                               ; preds = %47, %28
  %36 = load i32, i32* %2, align 4
  %37 = icmp sge i32 %36, 2
  br i1 %37, label %38, label %50

38:                                               ; preds = %35
  %39 = load i32, i32* %2, align 4
  %40 = sub nsw i32 %39, 1
  %41 = sext i32 %40 to i64
  %42 = getelementptr inbounds [1000 x %struct.student], [1000 x %struct.student]* %4, i64 0, i64 %41
  %43 = load i32, i32* %2, align 4
  %44 = sext i32 %43 to i64
  %45 = getelementptr inbounds [1000 x %struct.student], [1000 x %struct.student]* %4, i64 0, i64 %44
  %46 = getelementptr inbounds %struct.student, %struct.student* %45, i32 0, i32 1
  store %struct.student* %42, %struct.student** %46, align 8
  br label %47

47:                                               ; preds = %38
  %48 = load i32, i32* %2, align 4
  %49 = add nsw i32 %48, -1
  store i32 %49, i32* %2, align 4
  br label %35

50:                                               ; preds = %35
  %51 = getelementptr inbounds [1000 x %struct.student], [1000 x %struct.student]* %4, i64 0, i64 1
  %52 = getelementptr inbounds %struct.student, %struct.student* %51, i32 0, i32 1
  store %struct.student* null, %struct.student** %52, align 8
  %53 = load %struct.student*, %struct.student** %5, align 8
  store %struct.student* %53, %struct.student** %6, align 8
  store i32 1, i32* %2, align 4
  br label %54

54:                                               ; preds = %67, %50
  %55 = load i32, i32* %2, align 4
  %56 = load i32, i32* %3, align 4
  %57 = sub nsw i32 %56, 1
  %58 = icmp sle i32 %55, %57
  br i1 %58, label %59, label %70

59:                                               ; preds = %54
  %60 = load %struct.student*, %struct.student** %6, align 8
  %61 = getelementptr inbounds %struct.student, %struct.student* %60, i32 0, i32 0
  %62 = getelementptr inbounds [400 x i8], [400 x i8]* %61, i64 0, i64 0
  %63 = call i32 @puts(i8* %62)
  %64 = load %struct.student*, %struct.student** %6, align 8
  %65 = getelementptr inbounds %struct.student, %struct.student* %64, i32 0, i32 1
  %66 = load %struct.student*, %struct.student** %65, align 8
  store %struct.student* %66, %struct.student** %6, align 8
  br label %67

67:                                               ; preds = %59
  %68 = load i32, i32* %2, align 4
  %69 = add nsw i32 %68, 1
  store i32 %69, i32* %2, align 4
  br label %54

70:                                               ; preds = %54
  ret i32 0
}

declare dso_local i32 @gets(...) #1

declare dso_local i32 @puts(i8*) #1


!llvm.module.flags = !{!0}
!llvm.ident = !{!1}

!0 = !{i32 1, !"wchar_size", i32 4}
!1 = !{!"clang version 10.0.0-4ubuntu1 "}
